target datalayout = "e-m:e-p270:32:32-p271:32:32-p272:64:64-i64:64-i128:128-f80:128-n8:16:32:64-S128"
target triple = "x86_64-pc-linux-gnu"

%class.FieldInformation = type { %class.QObject, %class.IDataPrintable, ptr, ptr }
%class.QObject = type { ptr, %class.QScopedPointer }
%class.QScopedPointer = type { ptr }
%class.IDataPrintable = type { ptr }

@_ZL19gbl_cur_packet_list = internal global ptr null, align 8

; Function Attrs: mustprogress nounwind uwtable
define linkonce_odr void @_ZN14IDataPrintableD2Ev(ptr noundef nonnull align 8 dereferenceable(8) %0) unnamed_addr #2 comdat align 2 {
  %2 = alloca ptr, align 8
  store ptr %0, ptr %2, align 8
  ret void
}

; Function Attrs: mustprogress nounwind uwtable
define linkonce_odr void @_ZN16FieldInformationD2Ev(ptr noundef nonnull align 8 dereferenceable(40) %0) unnamed_addr #2 comdat align 2 {
  %2 = alloca ptr, align 8
  store ptr %0, ptr %2, align 8
  %3 = load ptr, ptr %2, align 8
  %4 = getelementptr inbounds i8, ptr %3, i64 16
  call void @_ZN14IDataPrintableD2Ev(ptr noundef nonnull align 8 dereferenceable(8) %4) #16
  call void @_ZN7QObjectD2Ev(ptr noundef nonnull align 8 dereferenceable(16) %3) #16
  ret void
}

; Function Attrs: mustprogress uwtable
define i32 @packet_list_select_finfo(ptr noundef %0) #0 personality ptr @__gxx_personality_v0 {
  %2 = alloca i32, align 4
  %3 = alloca ptr, align 8
  %4 = alloca %class.FieldInformation, align 8
  %5 = alloca ptr, align 8
  %6 = alloca i32, align 4
  store ptr %0, ptr %3, align 8
  %7 = load ptr, ptr @_ZL19gbl_cur_packet_list, align 8
  %8 = icmp ne ptr %7, null
  br i1 %8, label %9, label %13

9:                                                ; preds = %1
  %10 = load ptr, ptr @_ZL19gbl_cur_packet_list, align 8
  %11 = call noundef ptr @_ZNK17QAbstractItemView5modelEv(ptr noundef nonnull align 8 dereferenceable(40) %10)
  %12 = icmp ne ptr %11, null
  br i1 %12, label %14, label %13

13:                                               ; preds = %9, %1
  store i32 0, ptr %2, align 4
  br label %29

14:                                               ; preds = %9
  %15 = load ptr, ptr %3, align 8
  %16 = icmp ne ptr %15, null
  br i1 %16, label %17, label %26

17:                                               ; preds = %14
  %18 = load ptr, ptr %3, align 8
  %19 = load ptr, ptr @_ZL19gbl_cur_packet_list, align 8
  call void @_ZN16FieldInformationC1EP10field_infoP7QObject(ptr noundef nonnull align 8 dereferenceable(40) %4, ptr noundef %18, ptr noundef %19)
  %20 = load ptr, ptr @_ZL19gbl_cur_packet_list, align 8
  invoke void @_ZN10PacketList13fieldSelectedEP16FieldInformation(ptr noundef nonnull align 8 dereferenceable(464) %20, ptr noundef %4)
          to label %21 unwind label %22

21:                                               ; preds = %17
  call void @_ZN16FieldInformationD2Ev(ptr noundef nonnull align 8 dereferenceable(40) %4) #16
  br label %28

22:                                               ; preds = %17
  %23 = landingpad { ptr, i32 }
          cleanup
  %24 = extractvalue { ptr, i32 } %23, 0
  store ptr %24, ptr %5, align 8
  %25 = extractvalue { ptr, i32 } %23, 1
  store i32 %25, ptr %6, align 4
  call void @_ZN16FieldInformationD2Ev(ptr noundef nonnull align 8 dereferenceable(40) %4) #16
  br label %31

26:                                               ; preds = %14
  %27 = load ptr, ptr @_ZL19gbl_cur_packet_list, align 8
  call void @_ZN10PacketList13fieldSelectedEP16FieldInformation(ptr noundef nonnull align 8 dereferenceable(464) %27, ptr noundef null)
  br label %28

28:                                               ; preds = %26, %21
  store i32 1, ptr %2, align 4
  br label %29

29:                                               ; preds = %28, %13
  %30 = load i32, ptr %2, align 4
  ret i32 %30

31:                                               ; preds = %22
  %32 = load ptr, ptr %5, align 8
  %33 = load i32, ptr %6, align 4
  %34 = insertvalue { ptr, i32 } poison, ptr %32, 0
  %35 = insertvalue { ptr, i32 } %34, i32 %33, 1
  resume { ptr, i32 } %35
}