; Function Attrs: mustprogress uwtable
define noundef i32 @packet_list_select_finfo(ptr noundef %0) local_unnamed_addr #0 personality ptr @__gxx_personality_v0 {
  %2 = alloca %class.FieldInformation, align 8
  %3 = load ptr, ptr @_ZL19gbl_cur_packet_list, align 8
  %.not = icmp eq ptr %3, null
  br i1 %.not, label %14, label %4

4:                                                ; preds = %1
  %5 = tail call noundef ptr @_ZNK17QAbstractItemView5modelEv(ptr noundef nonnull align 8 dereferenceable(40) %3)
  %.not6 = icmp eq ptr %5, null
  br i1 %.not6, label %14, label %6

6:                                                ; preds = %4
  %.not7 = icmp eq ptr %0, null
  %7 = load ptr, ptr @_ZL19gbl_cur_packet_list, align 8
  br i1 %.not7, label %13, label %8

8:                                                ; preds = %6
  call void @_ZN16FieldInformationC1EP10field_infoP7QObject(ptr noundef nonnull align 8 dereferenceable(40) %2, ptr noundef nonnull %0, ptr noundef %7)
  %9 = load ptr, ptr @_ZL19gbl_cur_packet_list, align 8
  invoke void @_ZN10PacketList13fieldSelectedEP16FieldInformation(ptr noundef nonnull align 8 dereferenceable(464) %9, ptr noundef nonnull %2)
          to label %10 unwind label %11

10:                                               ; preds = %8
  call void @_ZN7QObjectD2Ev(ptr noundef nonnull align 8 dereferenceable(16) %2) #20
  br label %14

11:                                               ; preds = %8
  %12 = landingpad { ptr, i32 }
          cleanup
  call void @_ZN7QObjectD2Ev(ptr noundef nonnull align 8 dereferenceable(16) %2) #20
  resume { ptr, i32 } %12

13:                                               ; preds = %6
  tail call void @_ZN10PacketList13fieldSelectedEP16FieldInformation(ptr noundef nonnull align 8 dereferenceable(464) %7, ptr noundef null)
  br label %14

14:                                               ; preds = %10, %13, %1, %4
  %.0 = phi i32 [ 0, %4 ], [ 0, %1 ], [ 1, %13 ], [ 1, %10 ]
  ret i32 %.0
}